; Function Attrs: nofree nounwind memory(readwrite, argmem: read) uwtable
define noalias noundef ptr @Abc_NtkGetCiArrivalTimes(ptr noundef readonly captures(none) %0) local_unnamed_addr #12 {
  %2 = getelementptr i8, ptr %0, i64 56
  %.val15 = load ptr, ptr %2, align 8
  %3 = getelementptr i8, ptr %.val15, i64 4
  %.val15.val = load i32, ptr %3, align 4
  %4 = sext i32 %.val15.val to i64
  %5 = tail call noalias ptr @calloc(i64 noundef %4, i64 noundef 8) #21
  %6 = getelementptr inbounds nuw i8, ptr %0, i64 264
  %7 = load ptr, ptr %6, align 8
  %8 = icmp ne ptr %7, null
  %9 = icmp sgt i32 %.val15.val, 0
  %or.cond = and i1 %8, %9
  br i1 %or.cond, label %.lr.ph, label %.critedge

.lr.ph:                                           ; preds = %1
  %10 = getelementptr i8, ptr %.val15, i64 8
  %.val16.val = load ptr, ptr %10, align 8
  %wide.trip.count = zext nneg i32 %.val15.val to i64
  br label %11

11:                                               ; preds = %.lr.ph, %11
  %indvars.iv = phi i64 [ 0, %.lr.ph ], [ %indvars.iv.next, %11 ]
  %12 = getelementptr inbounds nuw ptr, ptr %.val16.val, i64 %indvars.iv
  %13 = load ptr, ptr %12, align 8
  %14 = getelementptr inbounds nuw %struct.Abc_Time_t_, ptr %5, i64 %indvars.iv
  %.val = load ptr, ptr %13, align 8
  %15 = getelementptr i8, ptr %13, i64 16
  %.val13 = load i32, ptr %15, align 8
  %16 = getelementptr i8, ptr %.val, i64 264
  %.val.val = load ptr, ptr %16, align 8
  %17 = getelementptr i8, ptr %.val.val, i64 16
  %.val.val.val = load ptr, ptr %17, align 8
  %18 = getelementptr i8, ptr %.val.val.val, i64 8
  %.val.val.val.val = load ptr, ptr %18, align 8
  %19 = sext i32 %.val13 to i64
  %20 = getelementptr inbounds ptr, ptr %.val.val.val.val, i64 %19
  %21 = load ptr, ptr %20, align 8
  %22 = load i64, ptr %21, align 4
  store i64 %22, ptr %14, align 4
  %indvars.iv.next = add nuw nsw i64 %indvars.iv, 1
  %exitcond.not = icmp eq i64 %indvars.iv.next, %wide.trip.count
  br i1 %exitcond.not, label %.critedge, label %11, !llvm.loop !30

.critedge:                                        ; preds = %11, %1
  ret ptr %5
}